Certificate:
    Data:
        Version: 3 (0x2)
        Serial Number: 0 (0x0)
        Signature Algorithm: sha1WithRSAEncryption
        Issuer: C=US, O=Virtual Astronomical Observatory, OU=Certificate Authorities, CN=VAOSSO CA T1
        Validity
            Not Before: Jul 16 21:41:07 2012 GMT
            Not After : Jul 15 21:41:07 2017 GMT
        Subject: C=US, O=Virtual Astronomical Observatory, OU=Certificate Authorities, CN=VAOSSO CA T1
        Subject Public Key Info:
            Public Key Algorithm: rsaEncryption
                Public-Key: (1024 bit)
                Modulus:
                    00:b2:e4:95:69:6f:90:70:df:72:04:61:05:32:2b:
                    1d:ae:5d:7d:6b:58:b5:06:af:93:4d:41:72:c1:da:
                    b7:e2:b9:20:06:87:14:4f:8e:ba:bf:9e:4e:a9:eb:
                    be:47:de:50:da:1d:b3:54:64:aa:5a:10:ac:11:eb:
                    f4:3b:62:a0:f9:d5:76:2e:55:7a:47:6d:3e:ac:1d:
                    13:7f:9d:7e:38:3b:b6:d4:d1:0a:84:47:ee:fc:18:
                    09:e2:4b:dc:7f:27:ad:0f:86:3f:59:23:41:1f:3d:
                    b7:58:55:fa:0e:25:bf:ab:9a:95:24:a6:25:77:ae:
                    49:6d:9c:75:15:0c:ae:10:1d
                Exponent: 65537 (0x10001)
        X509v3 extensions:
            Netscape Cert Type: 
                SSL Client, SSL Server, S/MIME, Object Signing
    Signature Algorithm: sha1WithRSAEncryption
        10:1d:50:b2:f7:ea:e8:aa:59:67:07:94:6f:09:c5:37:dd:41:
        56:3d:1f:8b:5e:8f:76:18:5d:a3:f6:49:11:d6:73:1f:e4:7d:
        20:7d:1a:e7:a1:ab:a9:c8:02:df:0f:d5:1a:83:6b:6c:97:22:
        c2:6a:be:a5:7b:30:ce:bf:73:ad:35:6c:9a:73:b2:ad:a5:56:
        eb:a9:2f:24:8a:51:14:26:89:63:a4:c5:84:fa:a2:3d:10:2e:
        25:91:8d:5a:39:58:84:2b:42:83:cf:4f:a1:05:fa:82:55:6e:
        d1:b1:bb:01:71:5d:71:8f:02:3c:65:4d:82:bf:a3:b1:f3:b3:
        ca:98
-----BEGIN CERTIFICATE-----
MIICbTCCAdagAwIBAgIBADANBgkqhkiG9w0BAQUFADBxMQswCQYDVQQGEwJVUzEp
MCcGA1UEChMgVmlydHVhbCBBc3Ryb25vbWljYWwgT2JzZXJ2YXRvcnkxIDAeBgNV
BAsTF0NlcnRpZmljYXRlIEF1dGhvcml0aWVzMRUwEwYDVQQDEwxWQU9TU08gQ0Eg
VDEwHhcNMTIwNzE2MjE0MTA3WhcNMTcwNzE1MjE0MTA3WjBxMQswCQYDVQQGEwJV
UzEpMCcGA1UEChMgVmlydHVhbCBBc3Ryb25vbWljYWwgT2JzZXJ2YXRvcnkxIDAe
BgNVBAsTF0NlcnRpZmljYXRlIEF1dGhvcml0aWVzMRUwEwYDVQQDEwxWQU9TU08g
Q0EgVDEwgZ8wDQYJKoZIhvcNAQEBBQADgY0AMIGJAoGBALLklWlvkHDfcgRhBTIr
Ha5dfWtYtQavk01BcsHat+K5IAaHFE+Our+eTqnrvkfeUNods1RkqloQrBHr9Dti
oPnVdi5VekdtPqwdE3+dfjg7ttTRCoRH7vwYCeJL3H8nrQ+GP1kjQR89t1hV+g4l
v6ualSSmJXeuSW2cdRUMrhAdAgMBAAGjFTATMBEGCWCGSAGG+EIBAQQEAwIE8DAN
BgkqhkiG9w0BAQUFAAOBgQAQHVCy9+roqllnB5RvCcU33UFWPR+LXo92GF2j9kkR
1nMf5H0gfRrnoaupyALfD9Uag2tslyLCar6lezDOv3OtNWyac7KtpVbrqS8kilEU
JoljpMWE+qI9EC4lkY1aOViEK0KDz0+hBfqCVW7RsbsBcV1xjwI8ZU2Cv6Ox87PK
mA==
-----END CERTIFICATE-----
