Certificate:
    Data:
        Version: 3 (0x2)
        Serial Number: 0 (0x0)
        Signature Algorithm: sha1WithRSAEncryption
        Issuer: C=US, O=Virtual Astronomical Observatory, OU=Certificate Authorities, CN=VAOSSO CA T1
        Validity
            Not Before: Oct 16 17:36:11 2013 GMT
            Not After : Oct 15 17:36:11 2018 GMT
        Subject: C=US, O=Virtual Astronomical Observatory, OU=Certificate Authorities, CN=VAOSSO CA T1
        Subject Public Key Info:
            Public Key Algorithm: rsaEncryption
                Public-Key: (1024 bit)
                Modulus:
                    00:cc:7a:e5:9f:32:79:b0:b2:5b:35:d0:e3:18:1f:
                    77:8d:9f:db:d6:2f:7e:3f:60:85:80:b3:9a:38:da:
                    57:d3:40:d7:46:72:ca:a5:ff:a0:9a:c0:5b:ca:80:
                    d9:15:e4:81:98:1c:d9:df:de:32:c0:51:2a:1d:ac:
                    db:9f:22:93:05:48:8f:3c:2e:2a:d4:5a:fb:87:00:
                    24:14:9c:1f:9a:a5:e3:12:d1:3f:14:c5:77:33:e7:
                    29:54:cb:32:fb:70:e2:4d:0e:17:48:8d:0b:21:de:
                    08:19:96:4c:29:78:57:57:c7:68:14:c6:3f:1c:7d:
                    fb:4f:60:d1:74:f2:c6:82:cd
                Exponent: 65537 (0x10001)
        X509v3 extensions:
            Netscape Cert Type: 
                SSL Client, SSL Server, S/MIME, Object Signing
    Signature Algorithm: sha1WithRSAEncryption
        51:28:66:7e:bf:26:87:3e:bb:04:62:d0:9a:46:c4:02:c5:e6:
        de:48:e7:23:dc:e1:64:2a:cf:19:48:61:f6:95:6b:74:f9:92:
        a6:44:7d:7b:7a:8c:49:eb:ea:79:bf:ce:b2:15:fe:d3:12:7e:
        15:52:a9:66:b4:ad:6f:2d:b2:9e:a0:4f:bf:0f:b9:08:06:a2:
        c7:e3:6e:e1:6a:12:bd:2b:c0:8e:d8:ac:9f:40:02:c9:04:63:
        17:7a:88:d4:89:30:59:46:8b:25:dd:a7:dd:37:2e:83:6b:e4:
        25:1e:60:9e:ff:e1:1c:da:74:48:c7:5e:fe:5a:bf:b1:eb:67:
        85:3a
-----BEGIN CERTIFICATE-----
MIICbTCCAdagAwIBAgIBADANBgkqhkiG9w0BAQUFADBxMQswCQYDVQQGEwJVUzEp
MCcGA1UEChMgVmlydHVhbCBBc3Ryb25vbWljYWwgT2JzZXJ2YXRvcnkxIDAeBgNV
BAsTF0NlcnRpZmljYXRlIEF1dGhvcml0aWVzMRUwEwYDVQQDEwxWQU9TU08gQ0Eg
VDEwHhcNMTMxMDE2MTczNjExWhcNMTgxMDE1MTczNjExWjBxMQswCQYDVQQGEwJV
UzEpMCcGA1UEChMgVmlydHVhbCBBc3Ryb25vbWljYWwgT2JzZXJ2YXRvcnkxIDAe
BgNVBAsTF0NlcnRpZmljYXRlIEF1dGhvcml0aWVzMRUwEwYDVQQDEwxWQU9TU08g
Q0EgVDEwgZ8wDQYJKoZIhvcNAQEBBQADgY0AMIGJAoGBAMx65Z8yebCyWzXQ4xgf
d42f29Yvfj9ghYCzmjjaV9NA10ZyyqX/oJrAW8qA2RXkgZgc2d/eMsBRKh2s258i
kwVIjzwuKtRa+4cAJBScH5ql4xLRPxTFdzPnKVTLMvtw4k0OF0iNCyHeCBmWTCl4
V1fHaBTGPxx9+09g0XTyxoLNAgMBAAGjFTATMBEGCWCGSAGG+EIBAQQEAwIE8DAN
BgkqhkiG9w0BAQUFAAOBgQBRKGZ+vyaHPrsEYtCaRsQCxebeSOcj3OFkKs8ZSGH2
lWt0+ZKmRH17eoxJ6+p5v86yFf7TEn4VUqlmtK1vLbKeoE+/D7kIBqLH427hahK9
K8CO2KyfQALJBGMXeojUiTBZRosl3afdNy6Da+QlHmCe/+Ec2nRIx17+Wr+x62eF
Og==
-----END CERTIFICATE-----
