Certificate:
    Data:
        Version: 3 (0x2)
        Serial Number: 0 (0x0)
        Signature Algorithm: sha1WithRSAEncryption
        Issuer: C=US, O=Virtual Astronomical Observatory, OU=Certificate Authorities, CN=VAOSSO CA L1
        Validity
            Not Before: Mar 27 05:52:51 2013 GMT
            Not After : Mar 26 05:52:51 2018 GMT
        Subject: C=US, O=Virtual Astronomical Observatory, OU=Certificate Authorities, CN=VAOSSO CA L1
        Subject Public Key Info:
            Public Key Algorithm: rsaEncryption
                Public-Key: (1024 bit)
                Modulus:
                    00:cc:d7:bc:90:f0:9b:00:68:19:d2:88:30:44:47:
                    f2:46:0f:eb:c4:a4:01:ca:5a:fc:4f:ad:04:89:85:
                    11:2f:7b:c3:69:65:ae:6f:85:7d:c8:a2:80:21:c2:
                    f1:29:57:ca:8d:7b:b9:d6:8d:45:c0:2e:39:f2:30:
                    d2:09:a6:22:93:a1:81:2e:39:63:49:a5:17:d8:2c:
                    ca:b1:6b:ea:6c:26:f1:17:d3:a9:ea:06:a8:51:2f:
                    91:22:ea:2f:51:43:a7:0f:b0:28:d7:5c:54:39:0d:
                    f3:1e:4d:67:df:1a:2b:f0:c7:89:c0:c1:19:59:ed:
                    ee:35:d0:23:65:40:bd:2e:9b
                Exponent: 65537 (0x10001)
        X509v3 extensions:
            Netscape Cert Type: 
                SSL Client, SSL Server, S/MIME, Object Signing
    Signature Algorithm: sha1WithRSAEncryption
        96:65:12:46:ac:63:b0:e0:2d:4b:7a:bb:2b:5a:5f:8d:c4:e0:
        4b:92:b1:81:0f:bf:d4:68:30:7c:a7:1e:ff:d4:d5:6f:58:a0:
        87:76:b0:34:ea:78:b6:05:45:1a:d6:ab:32:5d:e3:2e:66:cb:
        07:a0:7a:b3:63:29:9c:e4:f6:1f:27:32:c1:8b:8a:07:9a:2c:
        ab:19:6c:89:7d:5e:dc:6b:0e:70:b9:e9:7d:f8:3e:31:80:aa:
        49:b7:9b:af:3e:96:07:4b:0e:1a:98:e9:59:4e:1a:b8:08:f5:
        44:b7:37:a7:2d:e4:f6:f9:e0:59:bd:da:35:ff:c6:eb:92:3c:
        78:91
-----BEGIN CERTIFICATE-----
MIICbTCCAdagAwIBAgIBADANBgkqhkiG9w0BAQUFADBxMQswCQYDVQQGEwJVUzEp
MCcGA1UEChMgVmlydHVhbCBBc3Ryb25vbWljYWwgT2JzZXJ2YXRvcnkxIDAeBgNV
BAsTF0NlcnRpZmljYXRlIEF1dGhvcml0aWVzMRUwEwYDVQQDEwxWQU9TU08gQ0Eg
TDEwHhcNMTMwMzI3MDU1MjUxWhcNMTgwMzI2MDU1MjUxWjBxMQswCQYDVQQGEwJV
UzEpMCcGA1UEChMgVmlydHVhbCBBc3Ryb25vbWljYWwgT2JzZXJ2YXRvcnkxIDAe
BgNVBAsTF0NlcnRpZmljYXRlIEF1dGhvcml0aWVzMRUwEwYDVQQDEwxWQU9TU08g
Q0EgTDEwgZ8wDQYJKoZIhvcNAQEBBQADgY0AMIGJAoGBAMzXvJDwmwBoGdKIMERH
8kYP68SkAcpa/E+tBImFES97w2llrm+FfciigCHC8SlXyo17udaNRcAuOfIw0gmm
IpOhgS45Y0mlF9gsyrFr6mwm8RfTqeoGqFEvkSLqL1FDpw+wKNdcVDkN8x5NZ98a
K/DHicDBGVnt7jXQI2VAvS6bAgMBAAGjFTATMBEGCWCGSAGG+EIBAQQEAwIE8DAN
BgkqhkiG9w0BAQUFAAOBgQCWZRJGrGOw4C1LersrWl+NxOBLkrGBD7/UaDB8px7/
1NVvWKCHdrA06ni2BUUa1qsyXeMuZssHoHqzYymc5PYfJzLBi4oHmiyrGWyJfV7c
aw5wuel9+D4xgKpJt5uvPpYHSw4amOlZThq4CPVEtzenLeT2+eBZvdo1/8brkjx4
kQ==
-----END CERTIFICATE-----
